; Function Attrs: mustprogress nounwind uwtable
define hidden range(i64 0, 8589934592) i64 @_ZNK6hermes2vm9CodeBlock24getTextifiedCalleeOffsetEv(ptr noundef nonnull readonly align 8 captures(none) dereferenceable(40) %this) local_unnamed_addr #0 align 2 {
entry:
  %ref.tmp.i = alloca %"struct.std::pair.48", align 8
  %0 = load ptr, ptr %this, align 8
  %bcProvider_.i = getelementptr inbounds nuw i8, ptr %0, i64 80
  %1 = load ptr, ptr %bcProvider_.i, align 8
  %functionID_ = getelementptr inbounds nuw i8, ptr %this, i64 24
  %2 = load i32, ptr %functionID_, align 8
  call void @llvm.lifetime.start.p0(i64 24, ptr nonnull %ref.tmp.i)
  call void @_ZNK6hermes3hbc20BCProviderFromBuffer32getExceptionTableAndDebugOffsetsEj(ptr nonnull sret(%"struct.std::pair.48") align 8 %ref.tmp.i, ptr noundef nonnull align 8 dereferenceable(376) %1, i32 noundef %2) #7
  %second.i = getelementptr inbounds nuw i8, ptr %ref.tmp.i, i64 16
  %3 = load ptr, ptr %second.i, align 8
  call void @llvm.lifetime.end.p0(i64 24, ptr nonnull %ref.tmp.i)
  %tobool.not = icmp eq ptr %3, null
  br i1 %tobool.not, label %return, label %if.end

if.end:                                           ; preds = %entry
  %textifiedCallees = getelementptr inbounds nuw i8, ptr %3, i64 8
  %4 = load i32, ptr %textifiedCallees, align 4
  %cmp.not = icmp eq i32 %4, -1
  %spec.select = select i1 %cmp.not, i32 0, i32 %4
  %5 = select i1 %cmp.not, i64 0, i64 4294967296
  %6 = zext i32 %spec.select to i64
  %7 = or disjoint i64 %5, %6
  br label %return

return:                                           ; preds = %if.end, %entry
  %retval.sroa.0.0.insert.insert = phi i64 [ 0, %entry ], [ %7, %if.end ]
  ret i64 %retval.sroa.0.0.insert.insert
}